target datalayout = "e-m:e-p270:32:32-p271:32:32-p272:64:64-i64:64-i128:128-f80:128-n8:16:32:64-S128"
target triple = "x86_64-pc-linux-gnu"

@verbose = internal global i32 0, align 4
@select_name = internal global ptr null, align 8
@bio_out = external global ptr, align 8
@.str.102 = private unnamed_addr constant [3 x i8] c"  \00", align 1
@.str.103 = private unnamed_addr constant [7 x i8] c" @ %s\0A\00", align 1
@.str.104 = private unnamed_addr constant [21 x i8] c"    description: %s\0A\00", align 1
@.str.106 = private unnamed_addr constant [33 x i8] c"retrievable operation parameters\00", align 1
@.str.107 = private unnamed_addr constant [30 x i8] c"settable operation parameters\00", align 1
@.str.113 = private unnamed_addr constant [4 x i8] c" -\0A\00", align 1

; Function Attrs: inlinehint nounwind uwtable
define internal void @sk_EVP_ASYM_CIPHER_pop_free(ptr noundef %0, ptr noundef %1) #5 {
  %3 = alloca ptr, align 8
  %4 = alloca ptr, align 8
  store ptr %0, ptr %3, align 8, !tbaa !57
  store ptr %1, ptr %4, align 8, !tbaa !123
  %5 = load ptr, ptr %3, align 8, !tbaa !57
  %6 = load ptr, ptr %4, align 8, !tbaa !123
  call void @OPENSSL_sk_pop_free(ptr noundef %5, ptr noundef %6)
  ret void
}

; Function Attrs: inlinehint nounwind uwtable
define internal ptr @ossl_check_OPENSSL_CSTRING_sk_type(ptr noundef %0) #5 {
  %2 = alloca ptr, align 8
  store ptr %0, ptr %2, align 8, !tbaa !39
  %3 = load ptr, ptr %2, align 8, !tbaa !39
  ret ptr %3
}

; Function Attrs: inlinehint nounwind uwtable
define internal ptr @ossl_check_OPENSSL_CSTRING_compfunc_type(ptr noundef %0) #5 {
  %2 = alloca ptr, align 8
  store ptr %0, ptr %2, align 8, !tbaa !123
  %3 = load ptr, ptr %2, align 8, !tbaa !123
  ret ptr %3
}

; Function Attrs: inlinehint nounwind uwtable
define internal ptr @sk_EVP_ASYM_CIPHER_value(ptr noundef %0, i32 noundef %1) #5 {
  %3 = alloca ptr, align 8
  %4 = alloca i32, align 4
  store ptr %0, ptr %3, align 8, !tbaa !57
  store i32 %1, ptr %4, align 4, !tbaa !4
  %5 = load ptr, ptr %3, align 8, !tbaa !57
  %6 = load i32, ptr %4, align 4, !tbaa !4
  %7 = call ptr @OPENSSL_sk_value(ptr noundef %5, i32 noundef %6)
  ret ptr %7
}

; Function Attrs: inlinehint nounwind uwtable
define internal i32 @sk_EVP_ASYM_CIPHER_num(ptr noundef %0) #5 {
  %2 = alloca ptr, align 8
  store ptr %0, ptr %2, align 8, !tbaa !57
  %3 = load ptr, ptr %2, align 8, !tbaa !57
  %4 = call i32 @OPENSSL_sk_num(ptr noundef %3)
  ret i32 %4
}

; Function Attrs: inlinehint nounwind uwtable
define internal void @sk_EVP_ASYM_CIPHER_sort(ptr noundef %0) #5 {
  %2 = alloca ptr, align 8
  store ptr %0, ptr %2, align 8, !tbaa !57
  %3 = load ptr, ptr %2, align 8, !tbaa !57
  call void @OPENSSL_sk_sort(ptr noundef %3)
  ret void
}

; Function Attrs: inlinehint nounwind uwtable
define internal ptr @sk_EVP_ASYM_CIPHER_new(ptr noundef %0) #5 {
  %2 = alloca ptr, align 8
  store ptr %0, ptr %2, align 8, !tbaa !123
  %3 = load ptr, ptr %2, align 8, !tbaa !123
  %4 = call ptr @OPENSSL_sk_new(ptr noundef %3)
  ret ptr %4
}

; Function Attrs: nounwind uwtable
define internal void @list_asymciphers() #0 {
  %1 = alloca i32, align 4
  %2 = alloca i32, align 4
  %3 = alloca ptr, align 8
  %4 = alloca ptr, align 8
  %5 = alloca ptr, align 8
  %6 = alloca i32, align 4
  %7 = alloca ptr, align 8
  call void @llvm.lifetime.start.p0(i64 4, ptr %1) #7
  call void @llvm.lifetime.start.p0(i64 4, ptr %2) #7
  store i32 0, ptr %2, align 4, !tbaa !4
  call void @llvm.lifetime.start.p0(i64 8, ptr %3) #7
  %8 = call ptr @sk_EVP_ASYM_CIPHER_new(ptr noundef @asymcipher_cmp)
  store ptr %8, ptr %3, align 8, !tbaa !57
  %9 = call ptr @app_get0_libctx()
  %10 = load ptr, ptr %3, align 8, !tbaa !57
  call void @EVP_ASYM_CIPHER_do_all_provided(ptr noundef %9, ptr noundef @collect_asymciph, ptr noundef %10)
  %11 = load ptr, ptr %3, align 8, !tbaa !57
  call void @sk_EVP_ASYM_CIPHER_sort(ptr noundef %11)
  store i32 0, ptr %1, align 4, !tbaa !4
  br label %12

12:                                               ; preds = %76, %0
  %13 = load i32, ptr %1, align 4, !tbaa !4
  %14 = load ptr, ptr %3, align 8, !tbaa !57
  %15 = call i32 @sk_EVP_ASYM_CIPHER_num(ptr noundef %14)
  %16 = icmp slt i32 %13, %15
  br i1 %16, label %17, label %79

17:                                               ; preds = %12
  call void @llvm.lifetime.start.p0(i64 8, ptr %4) #7
  %18 = load ptr, ptr %3, align 8, !tbaa !57
  %19 = load i32, ptr %1, align 4, !tbaa !4
  %20 = call ptr @sk_EVP_ASYM_CIPHER_value(ptr noundef %18, i32 noundef %19)
  store ptr %20, ptr %4, align 8, !tbaa !59
  call void @llvm.lifetime.start.p0(i64 8, ptr %5) #7
  store ptr null, ptr %5, align 8, !tbaa !39
  %21 = load ptr, ptr @select_name, align 8, !tbaa !11
  %22 = icmp ne ptr %21, null
  br i1 %22, label %23, label %29

23:                                               ; preds = %17
  %24 = load ptr, ptr %4, align 8, !tbaa !59
  %25 = load ptr, ptr @select_name, align 8, !tbaa !11
  %26 = call i32 @EVP_ASYM_CIPHER_is_a(ptr noundef %24, ptr noundef %25)
  %27 = icmp ne i32 %26, 0
  br i1 %27, label %29, label %28

28:                                               ; preds = %23
  store i32 4, ptr %6, align 4
  br label %73

29:                                               ; preds = %23, %17
  %30 = call ptr @ossl_check_OPENSSL_CSTRING_compfunc_type(ptr noundef @name_cmp)
  %31 = call ptr @OPENSSL_sk_new(ptr noundef %30)
  store ptr %31, ptr %5, align 8, !tbaa !39
  %32 = load ptr, ptr %5, align 8, !tbaa !39
  %33 = icmp ne ptr %32, null
  br i1 %33, label %34, label %70

34:                                               ; preds = %29
  %35 = load ptr, ptr %4, align 8, !tbaa !59
  %36 = load ptr, ptr %5, align 8, !tbaa !39
  %37 = call i32 @EVP_ASYM_CIPHER_names_do_all(ptr noundef %35, ptr noundef @collect_names, ptr noundef %36)
  %38 = icmp ne i32 %37, 0
  br i1 %38, label %39, label %70

39:                                               ; preds = %34
  %40 = load i32, ptr %2, align 4, !tbaa !4
  %41 = add nsw i32 %40, 1
  store i32 %41, ptr %2, align 4, !tbaa !4
  %42 = load ptr, ptr @bio_out, align 8, !tbaa !13
  %43 = call i32 (ptr, ptr, ...) @BIO_printf(ptr noundef %42, ptr noundef @.str.102)
  %44 = load ptr, ptr @bio_out, align 8, !tbaa !13
  %45 = load ptr, ptr %5, align 8, !tbaa !39
  call void @print_names(ptr noundef %44, ptr noundef %45)
  %46 = load ptr, ptr @bio_out, align 8, !tbaa !13
  %47 = load ptr, ptr %4, align 8, !tbaa !59
  %48 = call ptr @EVP_ASYM_CIPHER_get0_provider(ptr noundef %47)
  %49 = call ptr @OSSL_PROVIDER_get0_name(ptr noundef %48)
  %50 = call i32 (ptr, ptr, ...) @BIO_printf(ptr noundef %46, ptr noundef @.str.103, ptr noundef %49)
  %51 = load i32, ptr @verbose, align 4, !tbaa !4
  %52 = icmp ne i32 %51, 0
  br i1 %52, label %53, label %69

53:                                               ; preds = %39
  call void @llvm.lifetime.start.p0(i64 8, ptr %7) #7
  %54 = load ptr, ptr %4, align 8, !tbaa !59
  %55 = call ptr @EVP_ASYM_CIPHER_get0_description(ptr noundef %54)
  store ptr %55, ptr %7, align 8, !tbaa !11
  %56 = load ptr, ptr %7, align 8, !tbaa !11
  %57 = icmp ne ptr %56, null
  br i1 %57, label %58, label %62

58:                                               ; preds = %53
  %59 = load ptr, ptr @bio_out, align 8, !tbaa !13
  %60 = load ptr, ptr %7, align 8, !tbaa !11
  %61 = call i32 (ptr, ptr, ...) @BIO_printf(ptr noundef %59, ptr noundef @.str.104, ptr noundef %60)
  br label %62

62:                                               ; preds = %58, %53
  %63 = load ptr, ptr %4, align 8, !tbaa !59
  %64 = call ptr @EVP_ASYM_CIPHER_settable_ctx_params(ptr noundef %63)
  %65 = call i32 @print_param_types(ptr noundef @.str.107, ptr noundef %64, i32 noundef 4)
  %66 = load ptr, ptr %4, align 8, !tbaa !59
  %67 = call ptr @EVP_ASYM_CIPHER_gettable_ctx_params(ptr noundef %66)
  %68 = call i32 @print_param_types(ptr noundef @.str.106, ptr noundef %67, i32 noundef 4)
  call void @llvm.lifetime.end.p0(i64 8, ptr %7) #7
  br label %69

69:                                               ; preds = %62, %39
  br label %70

70:                                               ; preds = %69, %34, %29
  %71 = load ptr, ptr %5, align 8, !tbaa !39
  %72 = call ptr @ossl_check_OPENSSL_CSTRING_sk_type(ptr noundef %71)
  call void @OPENSSL_sk_free(ptr noundef %72)
  store i32 0, ptr %6, align 4
  br label %73

73:                                               ; preds = %70, %28
  call void @llvm.lifetime.end.p0(i64 8, ptr %5) #7
  call void @llvm.lifetime.end.p0(i64 8, ptr %4) #7
  %74 = load i32, ptr %6, align 4
  switch i32 %74, label %87 [
    i32 0, label %75
    i32 4, label %76
  ]

75:                                               ; preds = %73
  br label %76

76:                                               ; preds = %75, %73
  %77 = load i32, ptr %1, align 4, !tbaa !4
  %78 = add nsw i32 %77, 1
  store i32 %78, ptr %1, align 4, !tbaa !4
  br label %12, !llvm.loop !61

79:                                               ; preds = %12
  %80 = load ptr, ptr %3, align 8, !tbaa !57
  call void @sk_EVP_ASYM_CIPHER_pop_free(ptr noundef %80, ptr noundef @EVP_ASYM_CIPHER_free)
  %81 = load i32, ptr %2, align 4, !tbaa !4
  %82 = icmp eq i32 %81, 0
  br i1 %82, label %83, label %86

83:                                               ; preds = %79
  %84 = load ptr, ptr @bio_out, align 8, !tbaa !13
  %85 = call i32 (ptr, ptr, ...) @BIO_printf(ptr noundef %84, ptr noundef @.str.113)
  br label %86

86:                                               ; preds = %83, %79
  call void @llvm.lifetime.end.p0(i64 8, ptr %3) #7
  call void @llvm.lifetime.end.p0(i64 4, ptr %2) #7
  call void @llvm.lifetime.end.p0(i64 4, ptr %1) #7
  ret void

87:                                               ; preds = %73
  unreachable
}